; Function Attrs: mustprogress uwtable
define internal noundef zeroext i1 @"_ZNSt17_Function_handlerIFbSt17basic_string_viewIcSt11char_traitsIcEERK10Elf64_ShdrEZN29Symbolize_ForEachSection_Test8TestBodyEvE3$_0E9_M_invokeERKSt9_Any_dataOS3_S6_"(ptr noundef nonnull readonly align 8 captures(none) dereferenceable(16) %0, ptr noundef nonnull readonly align 8 captures(none) dereferenceable(16) %1, ptr nonnull readnone align 8 captures(none) %2) #9 align 2 {
  %4 = alloca %"class.std::basic_string_view", align 8
  %.val = load ptr, ptr %0, align 8, !tbaa !216
  %.val3 = load i64, ptr %1, align 8, !tbaa !78
  %5 = getelementptr inbounds nuw i8, ptr %1, i64 8
  %.val4 = load ptr, ptr %5, align 8, !tbaa !10
  call void @llvm.lifetime.start.p0(i64 16, ptr nonnull %4)
  store i64 %.val3, ptr %4, align 8
  %6 = getelementptr inbounds nuw i8, ptr %4, i64 8
  store ptr %.val4, ptr %6, align 8
  %7 = call noundef nonnull align 8 dereferenceable(32) ptr @_ZNSt6vectorINSt7__cxx1112basic_stringIcSt11char_traitsIcESaIcEEESaIS5_EE12emplace_backIJRKSt17basic_string_viewIcS3_EEEERS5_DpOT_(ptr noundef nonnull align 8 dereferenceable(24) %.val, ptr noundef nonnull align 8 dereferenceable(16) %4)
  call void @llvm.lifetime.end.p0(i64 16, ptr nonnull %4)
  ret i1 true
}